; Function Attrs: mustprogress uwtable
define noundef nonnull ptr @_ZN6duckdb16WKBGeometryTypes8ToStringENS_15WKBGeometryTypeE(i16 noundef zeroext %0) local_unnamed_addr #3 align 2 personality ptr @__gxx_personality_v0 {
  %2 = alloca %"class.std::__cxx11::basic_string", align 8
  %3 = alloca %"class.std::allocator", align 1
  switch i16 %0, label %17 [
    i16 1, label %31
    i16 2, label %4
    i16 3, label %5
    i16 4, label %6
    i16 5, label %7
    i16 6, label %8
    i16 7, label %9
    i16 1001, label %10
    i16 1002, label %11
    i16 1003, label %12
    i16 1004, label %13
    i16 1005, label %14
    i16 1006, label %15
    i16 1007, label %16
  ]

4:                                                ; preds = %1
  br label %31

5:                                                ; preds = %1
  br label %31

6:                                                ; preds = %1
  br label %31

7:                                                ; preds = %1
  br label %31

8:                                                ; preds = %1
  br label %31

9:                                                ; preds = %1
  br label %31

10:                                               ; preds = %1
  br label %31

11:                                               ; preds = %1
  br label %31

12:                                               ; preds = %1
  br label %31

13:                                               ; preds = %1
  br label %31

14:                                               ; preds = %1
  br label %31

15:                                               ; preds = %1
  br label %31

16:                                               ; preds = %1
  br label %31

17:                                               ; preds = %1
  %18 = tail call ptr @__cxa_allocate_exception(i64 16) #25
  call void @llvm.lifetime.start.p0(i64 32, ptr nonnull %2) #25
  call void @llvm.lifetime.start.p0(i64 1, ptr nonnull %3) #25
  invoke void @_ZNSt7__cxx1112basic_stringIcSt11char_traitsIcESaIcEEC2EPKcRKS3_(ptr noundef nonnull align 8 dereferenceable(32) %2, ptr noundef nonnull @.str.14, ptr noundef nonnull align 1 dereferenceable(1) %3)
          to label %19 unwind label %_ZNSt7__cxx1112basic_stringIcSt11char_traitsIcESaIcEED2Ev.exit.thread

19:                                               ; preds = %17
  invoke void @_ZN6duckdb23NotImplementedExceptionC1ERKNSt7__cxx1112basic_stringIcSt11char_traitsIcESaIcEEE(ptr noundef nonnull align 8 dereferenceable(16) %18, ptr noundef nonnull align 8 dereferenceable(32) %2)
          to label %20 unwind label %22

20:                                               ; preds = %19
  invoke void @__cxa_throw(ptr nonnull %18, ptr nonnull @_ZTIN6duckdb23NotImplementedExceptionE, ptr nonnull @_ZNSt13runtime_errorD2Ev) #26
          to label %33 unwind label %22

_ZNSt7__cxx1112basic_stringIcSt11char_traitsIcESaIcEED2Ev.exit.thread: ; preds = %17
  %21 = landingpad { ptr, i32 }
          cleanup
  call void @llvm.lifetime.end.p0(i64 1, ptr nonnull %3) #25
  call void @llvm.lifetime.end.p0(i64 32, ptr nonnull %2) #25
  br label %30

22:                                               ; preds = %20, %19
  %.0 = phi i1 [ false, %20 ], [ true, %19 ]
  %23 = landingpad { ptr, i32 }
          cleanup
  %24 = load ptr, ptr %2, align 8, !tbaa !3
  %25 = getelementptr inbounds nuw i8, ptr %2, i64 16
  %26 = icmp eq ptr %24, %25
  br i1 %26, label %_ZNKSt7__cxx1112basic_stringIcSt11char_traitsIcESaIcEE11_M_is_localEv.exit.thread.i.i, label %_ZNSt7__cxx1112basic_stringIcSt11char_traitsIcESaIcEED2Ev.exit

_ZNKSt7__cxx1112basic_stringIcSt11char_traitsIcESaIcEE11_M_is_localEv.exit.thread.i.i: ; preds = %22
  %27 = getelementptr inbounds nuw i8, ptr %2, i64 8
  %28 = load i64, ptr %27, align 8, !tbaa !11
  %29 = icmp ult i64 %28, 16
  call void @llvm.assume(i1 %29)
  call void @llvm.lifetime.end.p0(i64 1, ptr nonnull %3) #25
  call void @llvm.lifetime.end.p0(i64 32, ptr nonnull %2) #25
  br i1 %.0, label %30, label %32

_ZNSt7__cxx1112basic_stringIcSt11char_traitsIcESaIcEED2Ev.exit: ; preds = %22
  call void @_ZdlPv(ptr noundef %24) #27
  call void @llvm.lifetime.end.p0(i64 1, ptr nonnull %3) #25
  call void @llvm.lifetime.end.p0(i64 32, ptr nonnull %2) #25
  br i1 %.0, label %30, label %32

30:                                               ; preds = %_ZNKSt7__cxx1112basic_stringIcSt11char_traitsIcESaIcEE11_M_is_localEv.exit.thread.i.i, %_ZNSt7__cxx1112basic_stringIcSt11char_traitsIcESaIcEED2Ev.exit.thread, %_ZNSt7__cxx1112basic_stringIcSt11char_traitsIcESaIcEED2Ev.exit
  %.pn11 = phi { ptr, i32 } [ %21, %_ZNSt7__cxx1112basic_stringIcSt11char_traitsIcESaIcEED2Ev.exit.thread ], [ %23, %_ZNSt7__cxx1112basic_stringIcSt11char_traitsIcESaIcEED2Ev.exit ], [ %23, %_ZNKSt7__cxx1112basic_stringIcSt11char_traitsIcESaIcEE11_M_is_localEv.exit.thread.i.i ]
  call void @__cxa_free_exception(ptr %18) #25
  br label %32

31:                                               ; preds = %1, %16, %15, %14, %13, %12, %11, %10, %9, %8, %7, %6, %5, %4
  %.06 = phi ptr [ @.str.13, %16 ], [ @.str.12, %15 ], [ @.str.11, %14 ], [ @.str.10, %13 ], [ @.str.9, %12 ], [ @.str.8, %11 ], [ @.str.7, %10 ], [ @.str.6, %9 ], [ @.str.5, %8 ], [ @.str.4, %7 ], [ @.str.3, %6 ], [ @.str.2, %5 ], [ @.str.1, %4 ], [ @.str, %1 ]
  ret ptr %.06

32:                                               ; preds = %_ZNKSt7__cxx1112basic_stringIcSt11char_traitsIcESaIcEE11_M_is_localEv.exit.thread.i.i, %_ZNSt7__cxx1112basic_stringIcSt11char_traitsIcESaIcEED2Ev.exit, %30
  %.pn10 = phi { ptr, i32 } [ %23, %_ZNSt7__cxx1112basic_stringIcSt11char_traitsIcESaIcEED2Ev.exit ], [ %.pn11, %30 ], [ %23, %_ZNKSt7__cxx1112basic_stringIcSt11char_traitsIcESaIcEE11_M_is_localEv.exit.thread.i.i ]
  resume { ptr, i32 } %.pn10

33:                                               ; preds = %20
  unreachable
}